; Function Attrs: mustprogress uwtable
define internal noundef zeroext i1 @"_ZNSt17_Function_handlerIFbvEZN6google8protobuf2io7Printer9ValueImplILb1EE18ToStringOrCallbackIRZNKS2_8compiler3cpp12_GLOBAL__N_115RepeatedMessage19GenerateMergingCodeEPS4_E3$_0vEESt7variantIJNSt7__cxx1112basic_stringIcSt11char_traitsIcESaIcEEESt8functionIS0_EEEOT_NS6_5Rank2EEUlvE_E9_M_invokeERKSt9_Any_data"(ptr nocapture noundef nonnull align 8 dereferenceable(16) %__functor) #3 align 2 personality ptr @__gxx_personality_v0 {
entry:
  %0 = getelementptr inbounds i8, ptr %__functor, i64 8
  %1 = load i8, ptr %0, align 8
  %2 = and i8 %1, 1
  %tobool.not.i.i.i = icmp eq i8 %2, 0
  br i1 %tobool.not.i.i.i, label %if.end.i.i.i, label %"_ZSt10__invoke_rIbRZN6google8protobuf2io7Printer9ValueImplILb1EE18ToStringOrCallbackIRZNKS1_8compiler3cpp12_GLOBAL__N_115RepeatedMessage19GenerateMergingCodeEPS3_E3$_0vEESt7variantIJNSt7__cxx1112basic_stringIcSt11char_traitsIcESaIcEEESt8functionIFbvEEEEOT_NS5_5Rank2EEUlvE_JEENSt9enable_ifIX16is_invocable_r_vISP_T0_DpT1_EESP_E4typeEOSV_DpOSW_.exit"

if.end.i.i.i:                                     ; preds = %entry
  store i8 1, ptr %0, align 8
  %this.val.i.i.i = load ptr, ptr %__functor, align 8
  %this.val.val.i.i.i = load ptr, ptr %this.val.i.i.i, align 8
  tail call void @_ZN6google8protobuf2io7Printer4EmitEN4absl12lts_202308024SpanIKNS2_3SubEEESt17basic_string_viewIcSt11char_traitsIcEENS2_14SourceLocationE(ptr noundef nonnull align 8 dereferenceable(256) %this.val.val.i.i.i, ptr null, i64 0, i64 107, ptr nonnull @.str.99)
  store i8 0, ptr %0, align 8
  br label %"_ZSt10__invoke_rIbRZN6google8protobuf2io7Printer9ValueImplILb1EE18ToStringOrCallbackIRZNKS1_8compiler3cpp12_GLOBAL__N_115RepeatedMessage19GenerateMergingCodeEPS3_E3$_0vEESt7variantIJNSt7__cxx1112basic_stringIcSt11char_traitsIcESaIcEEESt8functionIFbvEEEEOT_NS5_5Rank2EEUlvE_JEENSt9enable_ifIX16is_invocable_r_vISP_T0_DpT1_EESP_E4typeEOSV_DpOSW_.exit"

"_ZSt10__invoke_rIbRZN6google8protobuf2io7Printer9ValueImplILb1EE18ToStringOrCallbackIRZNKS1_8compiler3cpp12_GLOBAL__N_115RepeatedMessage19GenerateMergingCodeEPS3_E3$_0vEESt7variantIJNSt7__cxx1112basic_stringIcSt11char_traitsIcESaIcEEESt8functionIFbvEEEEOT_NS5_5Rank2EEUlvE_JEENSt9enable_ifIX16is_invocable_r_vISP_T0_DpT1_EESP_E4typeEOSV_DpOSW_.exit": ; preds = %entry, %if.end.i.i.i
  ret i1 %tobool.not.i.i.i
}